Certificate:
    Data:
        Version: 3 (0x2)
        Serial Number:
            0d:ab:e0:c0:4f:11:d3:d4:47:1e:de:e2:3e:09:5d:84
        Signature Algorithm: sha256WithRSAEncryption
        Issuer: CN=Symposium CA
        Validity
            Not Before: Apr  8 21:41:53 2021 GMT
            Not After : Jul 12 21:41:53 2023 GMT
        Subject: C=US, ST=Colorado, L=Aurora, O=isactn, CN=gitea.low.isactn.skyline.lan
        Subject Public Key Info:
            Public Key Algorithm: rsaEncryption
                RSA Public-Key: (2048 bit)
                Modulus:
                    00:b5:a9:dd:8d:a0:24:89:4c:ec:c4:c4:c4:9f:ac:
                    c5:3d:be:f4:2f:f7:e9:e4:6a:63:93:a1:03:47:b0:
                    77:18:77:99:ba:bd:61:35:e5:be:85:e1:f9:1a:d4:
                    a4:36:97:d6:6c:58:20:53:e8:52:f7:26:e2:cb:48:
                    70:bf:2f:7d:2a:f4:99:57:08:21:db:f2:ce:ae:13:
                    13:93:3c:bb:d9:64:a3:5d:dd:c7:bd:6b:94:d2:f5:
                    a5:27:86:74:a0:7c:07:8b:ba:7b:fa:8a:b5:00:73:
                    d5:19:29:dd:0c:af:63:c8:8c:fa:3d:68:1f:cc:32:
                    0e:73:f2:28:11:8b:61:c4:c0:66:ea:7a:8f:a8:05:
                    5e:d1:3b:34:27:51:9e:cd:af:7a:8b:d9:60:1e:c8:
                    70:c1:61:96:ad:e9:99:6d:4e:10:f4:13:97:45:89:
                    7e:87:d9:18:49:d0:2d:e4:ab:ba:08:d8:a8:3a:71:
                    91:a5:60:4f:af:fb:8c:18:ca:27:58:6e:a2:7c:6a:
                    9a:51:b9:5f:89:20:d4:82:46:9e:7f:d2:85:a1:b9:
                    23:e1:c6:41:d5:d9:e7:91:b6:aa:ab:28:44:74:4f:
                    a8:77:4b:fb:c5:c9:2c:b9:f5:75:e0:5b:6e:f1:dd:
                    e6:4b:08:8a:f1:37:d7:7b:86:1f:eb:2c:9f:9e:c3:
                    f6:69
                Exponent: 65537 (0x10001)
        X509v3 extensions:
            X509v3 Basic Constraints: 
                CA:FALSE
            X509v3 Subject Key Identifier: 
                CE:0E:BD:15:40:F7:8B:E8:32:86:C6:14:23:B1:89:AC:AF:69:B8:21
            X509v3 Authority Key Identifier: 
                keyid:CC:09:78:E1:24:EB:B7:A2:1D:67:14:97:BC:C7:23:0F:97:84:18:0F
                DirName:/CN=Symposium CA
                serial:3E:F4:5D:F9:16:3D:AD:9E:1D:C2:93:7D:8B:F5:73:BA:63:9C:4A:1E

            X509v3 Extended Key Usage: 
                TLS Web Server Authentication
            X509v3 Key Usage: 
                Digital Signature, Key Encipherment
            X509v3 Subject Alternative Name: 
                DNS:gitea.low.isactn.skyline.lan
    Signature Algorithm: sha256WithRSAEncryption
         63:63:db:94:7a:ec:be:74:2f:8e:55:0a:2c:a2:7f:bd:f3:09:
         d8:b5:bc:41:7a:1b:64:df:02:77:5b:6a:94:68:14:d1:07:ad:
         52:8d:24:bd:f6:c2:d3:36:a2:92:28:3f:b6:91:d0:7a:09:f5:
         4f:78:82:a5:37:d5:f0:ab:e4:f7:d5:d8:95:67:f9:a7:2e:39:
         5a:6e:5d:37:43:0b:7c:73:94:d2:9a:af:bc:03:a4:56:c6:49:
         b8:f0:56:5d:5b:f2:53:1e:9f:44:5f:a3:c7:c5:49:50:fa:71:
         ef:aa:0c:53:82:e8:14:d6:56:0e:e2:a6:d8:68:ab:09:f1:81:
         11:52:9e:81:29:c5:0c:88:f1:e3:ae:2f:5a:e8:6e:bd:19:76:
         ee:b7:b9:3e:71:fe:bc:f7:d8:3a:7d:33:ce:46:fe:b0:d2:2d:
         2d:7a:1b:30:79:8a:d6:4a:41:ac:38:d0:b7:aa:65:f7:a0:e8:
         bc:1f:e4:24:88:aa:f1:22:55:25:2c:83:d6:79:1d:b9:71:e0:
         22:33:0f:d0:63:8d:1d:84:76:e0:98:5d:33:38:2e:fb:bc:c4:
         34:36:fa:3b:98:bb:6a:fe:3c:8e:2b:74:08:ec:10:5b:be:d8:
         1b:14:02:13:f0:e2:ef:d4:aa:2b:8a:52:93:7d:b9:94:dd:b3:
         fa:02:4e:fa
-----BEGIN CERTIFICATE-----
MIID1zCCAr+gAwIBAgIQDavgwE8R09RHHt7iPgldhDANBgkqhkiG9w0BAQsFADAX
MRUwEwYDVQQDDAxTeW1wb3NpdW0gQ0EwHhcNMjEwNDA4MjE0MTUzWhcNMjMwNzEy
MjE0MTUzWjBpMQswCQYDVQQGEwJVUzERMA8GA1UECAwIQ29sb3JhZG8xDzANBgNV
BAcMBkF1cm9yYTEPMA0GA1UECgwGaXNhY3RuMSUwIwYDVQQDDBxnaXRlYS5sb3cu
aXNhY3RuLnNreWxpbmUubGFuMIIBIjANBgkqhkiG9w0BAQEFAAOCAQ8AMIIBCgKC
AQEAtandjaAkiUzsxMTEn6zFPb70L/fp5Gpjk6EDR7B3GHeZur1hNeW+heH5GtSk
NpfWbFggU+hS9ybiy0hwvy99KvSZVwgh2/LOrhMTkzy72WSjXd3HvWuU0vWlJ4Z0
oHwHi7p7+oq1AHPVGSndDK9jyIz6PWgfzDIOc/IoEYthxMBm6nqPqAVe0Ts0J1Ge
za96i9lgHshwwWGWremZbU4Q9BOXRYl+h9kYSdAt5Ku6CNioOnGRpWBPr/uMGMon
WG6ifGqaUblfiSDUgkaef9KFobkj4cZB1dnnkbaqqyhEdE+od0v7xcksufV14Ftu
8d3mSwiK8TfXe4Yf6yyfnsP2aQIDAQABo4HMMIHJMAkGA1UdEwQCMAAwHQYDVR0O
BBYEFM4OvRVA94voMobGFCOxiayvabghMFIGA1UdIwRLMEmAFMwJeOEk67eiHWcU
l7zHIw+XhBgPoRukGTAXMRUwEwYDVQQDDAxTeW1wb3NpdW0gQ0GCFD70XfkWPa2e
HcKTfYv1c7pjnEoeMBMGA1UdJQQMMAoGCCsGAQUFBwMBMAsGA1UdDwQEAwIFoDAn
BgNVHREEIDAeghxnaXRlYS5sb3cuaXNhY3RuLnNreWxpbmUubGFuMA0GCSqGSIb3
DQEBCwUAA4IBAQBjY9uUeuy+dC+OVQoson+98wnYtbxBehtk3wJ3W2qUaBTRB61S
jSS99sLTNqKSKD+2kdB6CfVPeIKlN9Xwq+T31diVZ/mnLjlabl03Qwt8c5TSmq+8
A6RWxkm48FZdW/JTHp9EX6PHxUlQ+nHvqgxTgugU1lYO4qbYaKsJ8YERUp6BKcUM
iPHjri9a6G69GXbut7k+cf6899g6fTPORv6w0i0tehsweYrWSkGsONC3qmX3oOi8
H+QkiKrxIlUlLIPWeR25ceAiMw/QY40dhHbgmF0zOC77vMQ0Nvo7mLtq/jyOK3QI
7BBbvtgbFAIT8OLv1KorilKTfbmU3bP6Ak76
-----END CERTIFICATE-----
